target datalayout = "e-m:e-p270:32:32-p271:32:32-p272:64:64-i64:64-i128:128-f80:128-n8:16:32:64-S128"
target triple = "x86_64-unknown-linux-gnu"

%class.btVector3 = type { [4 x float] }
%class.btConeShape = type { %class.btConvexInternalShape, float, float, float, [3 x i32] }
%class.btConvexInternalShape = type { %class.btConvexShape, %class.btVector3, %class.btVector3, float, float }
%class.btConvexShape = type { %class.btCollisionShape }
%class.btCollisionShape = type { ptr, i32, ptr, i32, i32 }

; Function Attrs: mustprogress nounwind uwtable
define linkonce_odr dso_local noundef ptr @_ZN9btVector3cvPfEv(ptr noundef nonnull align 4 dereferenceable(16) %this) #1 comdat align 2 {
entry:
  %this.addr = alloca ptr, align 8
  store ptr %this, ptr %this.addr, align 8
  %this1 = load ptr, ptr %this.addr, align 8
  %m_floats = getelementptr inbounds %class.btVector3, ptr %this1, i32 0, i32 0
  %arrayidx = getelementptr inbounds [4 x float], ptr %m_floats, i64 0, i64 0
  ret ptr %arrayidx
}

; Function Attrs: mustprogress nounwind uwtable
define linkonce_odr dso_local void @_ZN21btConvexInternalShapeD2Ev(ptr noundef nonnull align 8 dereferenceable(72) %this) unnamed_addr #1 comdat align 2 {
entry:
  %this.addr = alloca ptr, align 8
  store ptr %this, ptr %this.addr, align 8
  %this1 = load ptr, ptr %this.addr, align 8
  call void @_ZN13btConvexShapeD2Ev(ptr noundef nonnull align 8 dereferenceable(32) %this1) #9
  ret void
}

; Function Attrs: mustprogress nounwind uwtable
define linkonce_odr dso_local noundef float @_Z6btSqrtf(float noundef %y) #1 comdat {
entry:
  %y.addr = alloca float, align 4
  store float %y, ptr %y.addr, align 4
  %0 = load float, ptr %y.addr, align 4
  %call = call float @sqrtf(float noundef %0) #9
  ret float %call
}

; Function Attrs: mustprogress nounwind uwtable
define linkonce_odr dso_local void @_ZN9btVector3C2Ev(ptr noundef nonnull align 4 dereferenceable(16) %this) unnamed_addr #1 comdat align 2 {
entry:
  %this.addr = alloca ptr, align 8
  store ptr %this, ptr %this.addr, align 8
  ret void
}

; Function Attrs: mustprogress nounwind uwtable
define linkonce_odr dso_local void @_ZN11btConeShapeD2Ev(ptr noundef nonnull align 8 dereferenceable(96) %this) unnamed_addr #1 comdat align 2 {
entry:
  %this.addr = alloca ptr, align 8
  store ptr %this, ptr %this.addr, align 8
  %this1 = load ptr, ptr %this.addr, align 8
  call void @_ZN21btConvexInternalShapeD2Ev(ptr noundef nonnull align 8 dereferenceable(72) %this1) #9
  ret void
}

; Function Attrs: mustprogress uwtable
define dso_local void @_ZN11btConeShape14setConeUpIndexEi(ptr noundef nonnull align 8 dereferenceable(96) %this, i32 noundef %upIndex) #2 align 2 {
entry:
  %this.addr = alloca ptr, align 8
  %upIndex.addr = alloca i32, align 4
  store ptr %this, ptr %this.addr, align 8
  store i32 %upIndex, ptr %upIndex.addr, align 4
  %this1 = load ptr, ptr %this.addr, align 8
  %0 = load i32, ptr %upIndex.addr, align 4
  switch i32 %0, label %sw.default [
    i32 0, label %sw.bb
    i32 1, label %sw.bb6
    i32 2, label %sw.bb13
  ]

sw.bb:                                            ; preds = %entry
  %m_coneIndices = getelementptr inbounds %class.btConeShape, ptr %this1, i32 0, i32 4
  %arrayidx = getelementptr inbounds [3 x i32], ptr %m_coneIndices, i64 0, i64 0
  store i32 1, ptr %arrayidx, align 4
  %m_coneIndices2 = getelementptr inbounds %class.btConeShape, ptr %this1, i32 0, i32 4
  %arrayidx3 = getelementptr inbounds [3 x i32], ptr %m_coneIndices2, i64 0, i64 1
  store i32 0, ptr %arrayidx3, align 4
  %m_coneIndices4 = getelementptr inbounds %class.btConeShape, ptr %this1, i32 0, i32 4
  %arrayidx5 = getelementptr inbounds [3 x i32], ptr %m_coneIndices4, i64 0, i64 2
  store i32 2, ptr %arrayidx5, align 4
  br label %sw.epilog

sw.bb6:                                           ; preds = %entry
  %m_coneIndices7 = getelementptr inbounds %class.btConeShape, ptr %this1, i32 0, i32 4
  %arrayidx8 = getelementptr inbounds [3 x i32], ptr %m_coneIndices7, i64 0, i64 0
  store i32 0, ptr %arrayidx8, align 4
  %m_coneIndices9 = getelementptr inbounds %class.btConeShape, ptr %this1, i32 0, i32 4
  %arrayidx10 = getelementptr inbounds [3 x i32], ptr %m_coneIndices9, i64 0, i64 1
  store i32 1, ptr %arrayidx10, align 4
  %m_coneIndices11 = getelementptr inbounds %class.btConeShape, ptr %this1, i32 0, i32 4
  %arrayidx12 = getelementptr inbounds [3 x i32], ptr %m_coneIndices11, i64 0, i64 2
  store i32 2, ptr %arrayidx12, align 4
  br label %sw.epilog

sw.bb13:                                          ; preds = %entry
  %m_coneIndices14 = getelementptr inbounds %class.btConeShape, ptr %this1, i32 0, i32 4
  %arrayidx15 = getelementptr inbounds [3 x i32], ptr %m_coneIndices14, i64 0, i64 0
  store i32 0, ptr %arrayidx15, align 4
  %m_coneIndices16 = getelementptr inbounds %class.btConeShape, ptr %this1, i32 0, i32 4
  %arrayidx17 = getelementptr inbounds [3 x i32], ptr %m_coneIndices16, i64 0, i64 1
  store i32 2, ptr %arrayidx17, align 4
  %m_coneIndices18 = getelementptr inbounds %class.btConeShape, ptr %this1, i32 0, i32 4
  %arrayidx19 = getelementptr inbounds [3 x i32], ptr %m_coneIndices18, i64 0, i64 2
  store i32 1, ptr %arrayidx19, align 4
  br label %sw.epilog

sw.default:                                       ; preds = %entry
  br label %sw.epilog

sw.epilog:                                        ; preds = %sw.default, %sw.bb13, %sw.bb6, %sw.bb
  %m_radius = getelementptr inbounds %class.btConeShape, ptr %this1, i32 0, i32 2
  %1 = load float, ptr %m_radius, align 4
  %m_implicitShapeDimensions = getelementptr inbounds %class.btConvexInternalShape, ptr %this1, i32 0, i32 2
  %call = call noundef ptr @_ZN9btVector3cvPfEv(ptr noundef nonnull align 4 dereferenceable(16) %m_implicitShapeDimensions)
  %m_coneIndices20 = getelementptr inbounds %class.btConeShape, ptr %this1, i32 0, i32 4
  %arrayidx21 = getelementptr inbounds [3 x i32], ptr %m_coneIndices20, i64 0, i64 0
  %2 = load i32, ptr %arrayidx21, align 4
  %idxprom = sext i32 %2 to i64
  %arrayidx22 = getelementptr inbounds float, ptr %call, i64 %idxprom
  store float %1, ptr %arrayidx22, align 4
  %m_height = getelementptr inbounds %class.btConeShape, ptr %this1, i32 0, i32 3
  %3 = load float, ptr %m_height, align 8
  %m_implicitShapeDimensions23 = getelementptr inbounds %class.btConvexInternalShape, ptr %this1, i32 0, i32 2
  %call24 = call noundef ptr @_ZN9btVector3cvPfEv(ptr noundef nonnull align 4 dereferenceable(16) %m_implicitShapeDimensions23)
  %m_coneIndices25 = getelementptr inbounds %class.btConeShape, ptr %this1, i32 0, i32 4
  %arrayidx26 = getelementptr inbounds [3 x i32], ptr %m_coneIndices25, i64 0, i64 1
  %4 = load i32, ptr %arrayidx26, align 4
  %idxprom27 = sext i32 %4 to i64
  %arrayidx28 = getelementptr inbounds float, ptr %call24, i64 %idxprom27
  store float %3, ptr %arrayidx28, align 4
  %m_radius29 = getelementptr inbounds %class.btConeShape, ptr %this1, i32 0, i32 2
  %5 = load float, ptr %m_radius29, align 4
  %m_implicitShapeDimensions30 = getelementptr inbounds %class.btConvexInternalShape, ptr %this1, i32 0, i32 2
  %call31 = call noundef ptr @_ZN9btVector3cvPfEv(ptr noundef nonnull align 4 dereferenceable(16) %m_implicitShapeDimensions30)
  %m_coneIndices32 = getelementptr inbounds %class.btConeShape, ptr %this1, i32 0, i32 4
  %arrayidx33 = getelementptr inbounds [3 x i32], ptr %m_coneIndices32, i64 0, i64 2
  %6 = load i32, ptr %arrayidx33, align 4
  %idxprom34 = sext i32 %6 to i64
  %arrayidx35 = getelementptr inbounds float, ptr %call31, i64 %idxprom34
  store float %5, ptr %arrayidx35, align 4
  ret void
}

; Function Attrs: mustprogress uwtable
define dso_local void @_ZN11btConeShapeC2Eff(ptr noundef nonnull align 8 dereferenceable(96) %this, float noundef %radius, float noundef %height) unnamed_addr #2 align 2 personality ptr @__gxx_personality_v0 {
entry:
  %this.addr = alloca ptr, align 8
  %radius.addr = alloca float, align 4
  %height.addr = alloca float, align 4
  %exn.slot = alloca ptr, align 8
  %ehselector.slot = alloca i32, align 4
  %halfExtents = alloca %class.btVector3, align 4
  store ptr %this, ptr %this.addr, align 8
  store float %radius, ptr %radius.addr, align 4
  store float %height, ptr %height.addr, align 4
  %this1 = load ptr, ptr %this.addr, align 8
  call void @_ZN21btConvexInternalShapeC2Ev(ptr noundef nonnull align 8 dereferenceable(72) %this1)
  store ptr getelementptr inbounds ({ [25 x ptr] }, ptr @_ZTV11btConeShape, i32 0, i32 0, i32 2), ptr %this1, align 8
  %m_radius = getelementptr inbounds %class.btConeShape, ptr %this1, i32 0, i32 2
  %0 = load float, ptr %radius.addr, align 4
  store float %0, ptr %m_radius, align 4
  %m_height = getelementptr inbounds %class.btConeShape, ptr %this1, i32 0, i32 3
  %1 = load float, ptr %height.addr, align 4
  store float %1, ptr %m_height, align 8
  %m_shapeType = getelementptr inbounds %class.btCollisionShape, ptr %this1, i32 0, i32 1
  store i32 11, ptr %m_shapeType, align 8
  invoke void @_ZN11btConeShape14setConeUpIndexEi(ptr noundef nonnull align 8 dereferenceable(96) %this1, i32 noundef 1)
          to label %invoke.cont unwind label %lpad

invoke.cont:                                      ; preds = %entry
  invoke void @_ZN9btVector3C2Ev(ptr noundef nonnull align 4 dereferenceable(16) %halfExtents)
          to label %invoke.cont2 unwind label %lpad

invoke.cont2:                                     ; preds = %invoke.cont
  %m_radius3 = getelementptr inbounds %class.btConeShape, ptr %this1, i32 0, i32 2
  %2 = load float, ptr %m_radius3, align 4
  %m_radius4 = getelementptr inbounds %class.btConeShape, ptr %this1, i32 0, i32 2
  %3 = load float, ptr %m_radius4, align 4
  %m_radius5 = getelementptr inbounds %class.btConeShape, ptr %this1, i32 0, i32 2
  %4 = load float, ptr %m_radius5, align 4
  %m_height6 = getelementptr inbounds %class.btConeShape, ptr %this1, i32 0, i32 3
  %5 = load float, ptr %m_height6, align 8
  %m_height7 = getelementptr inbounds %class.btConeShape, ptr %this1, i32 0, i32 3
  %6 = load float, ptr %m_height7, align 8
  %mul8 = fmul float %5, %6
  %7 = call float @llvm.fmuladd.f32(float %3, float %4, float %mul8)
  %call = invoke noundef float @_Z6btSqrtf(float noundef %7)
          to label %invoke.cont9 unwind label %lpad

invoke.cont9:                                     ; preds = %invoke.cont2
  %div = fdiv float %2, %call
  %m_sinAngle = getelementptr inbounds %class.btConeShape, ptr %this1, i32 0, i32 1
  store float %div, ptr %m_sinAngle, align 8
  ret void

lpad:                                             ; preds = %invoke.cont2, %invoke.cont, %entry
  %8 = landingpad { ptr, i32 }
          cleanup
  %9 = extractvalue { ptr, i32 } %8, 0
  store ptr %9, ptr %exn.slot, align 8
  %10 = extractvalue { ptr, i32 } %8, 1
  store i32 %10, ptr %ehselector.slot, align 4
  call void @_ZN21btConvexInternalShapeD2Ev(ptr noundef nonnull align 8 dereferenceable(72) %this1) #9
  br label %eh.resume

eh.resume:                                        ; preds = %lpad
  %exn = load ptr, ptr %exn.slot, align 8
  %sel = load i32, ptr %ehselector.slot, align 4
  %lpad.val = insertvalue { ptr, i32 } poison, ptr %exn, 0
  %lpad.val10 = insertvalue { ptr, i32 } %lpad.val, i32 %sel, 1
  resume { ptr, i32 } %lpad.val10
}

; Function Attrs: mustprogress uwtable
define dso_local void @_ZN12btConeShapeZC2Eff(ptr noundef nonnull align 8 dereferenceable(96) %this, float noundef %radius, float noundef %height) unnamed_addr #2 align 2 personality ptr @__gxx_personality_v0 {
entry:
  %this.addr = alloca ptr, align 8
  %radius.addr = alloca float, align 4
  %height.addr = alloca float, align 4
  %exn.slot = alloca ptr, align 8
  %ehselector.slot = alloca i32, align 4
  store ptr %this, ptr %this.addr, align 8
  store float %radius, ptr %radius.addr, align 4
  store float %height, ptr %height.addr, align 4
  %this1 = load ptr, ptr %this.addr, align 8
  %0 = load float, ptr %radius.addr, align 4
  %1 = load float, ptr %height.addr, align 4
  call void @_ZN11btConeShapeC2Eff(ptr noundef nonnull align 8 dereferenceable(96) %this1, float noundef %0, float noundef %1)
  store ptr getelementptr inbounds ({ [25 x ptr] }, ptr @_ZTV12btConeShapeZ, i32 0, i32 0, i32 2), ptr %this1, align 8
  invoke void @_ZN11btConeShape14setConeUpIndexEi(ptr noundef nonnull align 8 dereferenceable(96) %this1, i32 noundef 2)
          to label %invoke.cont unwind label %lpad

invoke.cont:                                      ; preds = %entry
  ret void

lpad:                                             ; preds = %entry
  %2 = landingpad { ptr, i32 }
          cleanup
  %3 = extractvalue { ptr, i32 } %2, 0
  store ptr %3, ptr %exn.slot, align 8
  %4 = extractvalue { ptr, i32 } %2, 1
  store i32 %4, ptr %ehselector.slot, align 4
  call void @_ZN11btConeShapeD2Ev(ptr noundef nonnull align 8 dereferenceable(96) %this1) #9
  br label %eh.resume

eh.resume:                                        ; preds = %lpad
  %exn = load ptr, ptr %exn.slot, align 8
  %sel = load i32, ptr %ehselector.slot, align 4
  %lpad.val = insertvalue { ptr, i32 } poison, ptr %exn, 0
  %lpad.val2 = insertvalue { ptr, i32 } %lpad.val, i32 %sel, 1
  resume { ptr, i32 } %lpad.val2
}