; Function Attrs: mustprogress uwtable
define dso_local void @_ZN12btConeShapeZC2Eff(ptr noundef nonnull align 8 dereferenceable(96) %this, float noundef %radius, float noundef %height) unnamed_addr #0 align 2 personality ptr @__gxx_personality_v0 {
invoke.cont:
  tail call void @_ZN21btConvexInternalShapeC2Ev(ptr noundef nonnull align 8 dereferenceable(72) %this)
  %m_radius.i = getelementptr inbounds i8, ptr %this, i64 76
  store float %radius, ptr %m_radius.i, align 4
  %m_height.i = getelementptr inbounds i8, ptr %this, i64 80
  store float %height, ptr %m_height.i, align 8
  %m_shapeType.i = getelementptr inbounds i8, ptr %this, i64 8
  store i32 11, ptr %m_shapeType.i, align 8
  %m_coneIndices20.phi.trans.insert.i.i = getelementptr inbounds i8, ptr %this, i64 84
  %arrayidx10.i.i = getelementptr inbounds i8, ptr %this, i64 88
  %arrayidx12.i.i = getelementptr inbounds i8, ptr %this, i64 92
  %m_implicitShapeDimensions.i.i = getelementptr inbounds i8, ptr %this, i64 48
  %arrayidx28.i.i = getelementptr inbounds i8, ptr %this, i64 52
  %arrayidx35.i.i = getelementptr inbounds i8, ptr %this, i64 56
  %mul8.i = fmul float %height, %height
  %0 = tail call float @llvm.fmuladd.f32(float %radius, float %radius, float %mul8.i)
  %sqrt.i = tail call float @llvm.sqrt.f32(float %0)
  %div.i = fdiv float %radius, %sqrt.i
  %m_sinAngle.i = getelementptr inbounds i8, ptr %this, i64 72
  store float %div.i, ptr %m_sinAngle.i, align 8
  store ptr getelementptr inbounds ({ [25 x ptr] }, ptr @_ZTV12btConeShapeZ, i64 0, i32 0, i64 2), ptr %this, align 8
  store i32 0, ptr %m_coneIndices20.phi.trans.insert.i.i, align 4
  store i32 2, ptr %arrayidx10.i.i, align 8
  store i32 1, ptr %arrayidx12.i.i, align 4
  store float %radius, ptr %m_implicitShapeDimensions.i.i, align 8
  store float %height, ptr %arrayidx35.i.i, align 8
  store float %radius, ptr %arrayidx28.i.i, align 4
  ret void
}